target datalayout = "e-m:e-p270:32:32-p271:32:32-p272:64:64-i64:64-i128:128-f80:128-n8:16:32:64-S128"
target triple = "x86_64-pc-linux-gnu"

%struct.ReplyParserCallbacks = type { ptr, ptr, ptr, ptr, ptr, ptr, ptr, ptr, ptr, ptr, ptr, ptr, ptr, ptr, ptr, ptr }
%struct.CallReply = type { ptr, ptr, ptr, i64, i32, i32, i64, %union.anon, ptr, ptr }
%union.anon = type { %struct.anon }
%struct.anon = type { ptr, ptr }
%struct.ReplyParser = type { ptr, %struct.ReplyParserCallbacks }

; Function Attrs: nounwind uwtable
define internal ptr @callReplyGetCollectionElement(ptr noundef %0, i64 noundef %1, i32 noundef %2) #0 {
  %4 = alloca ptr, align 8
  %5 = alloca ptr, align 8
  %6 = alloca i64, align 8
  %7 = alloca i32, align 4
  store ptr %0, ptr %5, align 8, !tbaa !5
  store i64 %1, ptr %6, align 8, !tbaa !19
  store i32 %2, ptr %7, align 4, !tbaa !35
  %8 = load i64, ptr %6, align 8, !tbaa !19
  %9 = load ptr, ptr %5, align 8, !tbaa !5
  %10 = getelementptr inbounds nuw %struct.CallReply, ptr %9, i32 0, i32 6
  %11 = load i64, ptr %10, align 8, !tbaa !20
  %12 = load i32, ptr %7, align 4, !tbaa !35
  %13 = sext i32 %12 to i64
  %14 = mul i64 %11, %13
  %15 = icmp uge i64 %8, %14
  br i1 %15, label %16, label %17

16:                                               ; preds = %3
  store ptr null, ptr %4, align 8
  br label %23

17:                                               ; preds = %3
  %18 = load ptr, ptr %5, align 8, !tbaa !5
  %19 = getelementptr inbounds nuw %struct.CallReply, ptr %18, i32 0, i32 7
  %20 = load ptr, ptr %19, align 8, !tbaa !21
  %21 = load i64, ptr %6, align 8, !tbaa !19
  %22 = getelementptr inbounds nuw %struct.CallReply, ptr %20, i64 %21
  store ptr %22, ptr %4, align 8
  br label %23

23:                                               ; preds = %17, %16
  %24 = load ptr, ptr %4, align 8
  ret ptr %24
}

; Function Attrs: nounwind uwtable
define internal void @callReplyParse(ptr noundef %0) #0 {
  %2 = alloca ptr, align 8
  %3 = alloca %struct.ReplyParser, align 8
  store ptr %0, ptr %2, align 8, !tbaa !5
  %4 = load ptr, ptr %2, align 8, !tbaa !5
  %5 = getelementptr inbounds nuw %struct.CallReply, ptr %4, i32 0, i32 5
  %6 = load i32, ptr %5, align 4, !tbaa !10
  %7 = and i32 %6, 2
  %8 = icmp ne i32 %7, 0
  br i1 %8, label %9, label %10

9:                                                ; preds = %1
  br label %22

10:                                               ; preds = %1
  call void @llvm.lifetime.start.p0(i64 136, ptr %3) #6
  %11 = getelementptr inbounds nuw %struct.ReplyParser, ptr %3, i32 0, i32 0
  %12 = load ptr, ptr %2, align 8, !tbaa !5
  %13 = getelementptr inbounds nuw %struct.CallReply, ptr %12, i32 0, i32 2
  %14 = load ptr, ptr %13, align 8, !tbaa !28
  store ptr %14, ptr %11, align 8, !tbaa !29
  %15 = getelementptr inbounds nuw %struct.ReplyParser, ptr %3, i32 0, i32 1
  call void @llvm.memcpy.p0.p0.i64(ptr align 8 %15, ptr align 8 @DefaultParserCallbacks, i64 128, i1 false), !tbaa.struct !32
  %16 = load ptr, ptr %2, align 8, !tbaa !5
  %17 = call i32 @parseReply(ptr noundef %3, ptr noundef %16)
  %18 = load ptr, ptr %2, align 8, !tbaa !5
  %19 = getelementptr inbounds nuw %struct.CallReply, ptr %18, i32 0, i32 5
  %20 = load i32, ptr %19, align 4, !tbaa !10
  %21 = or i32 %20, 2
  store i32 %21, ptr %19, align 4, !tbaa !10
  call void @llvm.lifetime.end.p0(i64 136, ptr %3) #6
  br label %22

22:                                               ; preds = %10, %9
  ret void
}

; Function Attrs: nounwind uwtable
define internal i32 @callReplyGetMapElementInternal(ptr noundef %0, i64 noundef %1, ptr noundef %2, ptr noundef %3, i32 noundef %4) #0 {
  %6 = alloca i32, align 4
  %7 = alloca ptr, align 8
  %8 = alloca i64, align 8
  %9 = alloca ptr, align 8
  %10 = alloca ptr, align 8
  %11 = alloca i32, align 4
  store ptr %0, ptr %7, align 8, !tbaa !5
  store i64 %1, ptr %8, align 8, !tbaa !19
  store ptr %2, ptr %9, align 8, !tbaa !36
  store ptr %3, ptr %10, align 8, !tbaa !36
  store i32 %4, ptr %11, align 4, !tbaa !35
  %12 = load ptr, ptr %7, align 8, !tbaa !5
  call void @callReplyParse(ptr noundef %12)
  %13 = load ptr, ptr %7, align 8, !tbaa !5
  %14 = getelementptr inbounds nuw %struct.CallReply, ptr %13, i32 0, i32 4
  %15 = load i32, ptr %14, align 8, !tbaa !16
  %16 = load i32, ptr %11, align 4, !tbaa !35
  %17 = icmp ne i32 %15, %16
  br i1 %17, label %18, label %19

18:                                               ; preds = %5
  store i32 -1, ptr %6, align 4
  br label %46

19:                                               ; preds = %5
  %20 = load i64, ptr %8, align 8, !tbaa !19
  %21 = load ptr, ptr %7, align 8, !tbaa !5
  %22 = getelementptr inbounds nuw %struct.CallReply, ptr %21, i32 0, i32 6
  %23 = load i64, ptr %22, align 8, !tbaa !20
  %24 = icmp uge i64 %20, %23
  br i1 %24, label %25, label %26

25:                                               ; preds = %19
  store i32 -1, ptr %6, align 4
  br label %46

26:                                               ; preds = %19
  %27 = load ptr, ptr %9, align 8, !tbaa !36
  %28 = icmp ne ptr %27, null
  br i1 %28, label %29, label %35

29:                                               ; preds = %26
  %30 = load ptr, ptr %7, align 8, !tbaa !5
  %31 = load i64, ptr %8, align 8, !tbaa !19
  %32 = mul i64 %31, 2
  %33 = call ptr @callReplyGetCollectionElement(ptr noundef %30, i64 noundef %32, i32 noundef 2)
  %34 = load ptr, ptr %9, align 8, !tbaa !36
  store ptr %33, ptr %34, align 8, !tbaa !5
  br label %35

35:                                               ; preds = %29, %26
  %36 = load ptr, ptr %10, align 8, !tbaa !36
  %37 = icmp ne ptr %36, null
  br i1 %37, label %38, label %45

38:                                               ; preds = %35
  %39 = load ptr, ptr %7, align 8, !tbaa !5
  %40 = load i64, ptr %8, align 8, !tbaa !19
  %41 = mul i64 %40, 2
  %42 = add i64 %41, 1
  %43 = call ptr @callReplyGetCollectionElement(ptr noundef %39, i64 noundef %42, i32 noundef 2)
  %44 = load ptr, ptr %10, align 8, !tbaa !36
  store ptr %43, ptr %44, align 8, !tbaa !5
  br label %45

45:                                               ; preds = %38, %35
  store i32 0, ptr %6, align 4
  br label %46

46:                                               ; preds = %45, %25, %18
  %47 = load i32, ptr %6, align 4
  ret i32 %47
}

; Function Attrs: nounwind uwtable
define dso_local i32 @callReplyGetAttributeElement(ptr noundef %0, i64 noundef %1, ptr noundef %2, ptr noundef %3) #0 {
  %5 = alloca ptr, align 8
  %6 = alloca i64, align 8
  %7 = alloca ptr, align 8
  %8 = alloca ptr, align 8
  store ptr %0, ptr %5, align 8, !tbaa !5
  store i64 %1, ptr %6, align 8, !tbaa !19
  store ptr %2, ptr %7, align 8, !tbaa !36
  store ptr %3, ptr %8, align 8, !tbaa !36
  %9 = load ptr, ptr %5, align 8, !tbaa !5
  %10 = load i64, ptr %6, align 8, !tbaa !19
  %11 = load ptr, ptr %7, align 8, !tbaa !36
  %12 = load ptr, ptr %8, align 8, !tbaa !36
  %13 = call i32 @callReplyGetMapElementInternal(ptr noundef %9, i64 noundef %10, ptr noundef %11, ptr noundef %12, i32 noundef 5)
  ret i32 %13
}