; Function Attrs: nounwind uwtable
define dso_local range(i32 -1, 1) i32 @callReplyGetAttributeElement(ptr noundef %0, i64 noundef %1, ptr noundef writeonly captures(address_is_null) %2, ptr noundef writeonly captures(address_is_null) %3) local_unnamed_addr #0 {
  %5 = alloca %struct.ReplyParser, align 8
  %6 = getelementptr inbounds nuw i8, ptr %0, i64 36
  %7 = load i32, ptr %6, align 4, !tbaa !5
  %8 = and i32 %7, 2
  %.not.i.i = icmp eq i32 %8, 0
  br i1 %.not.i.i, label %9, label %callReplyParse.exit.i

9:                                                ; preds = %4
  call void @llvm.lifetime.start.p0(i64 136, ptr nonnull %5) #8
  %10 = getelementptr inbounds nuw i8, ptr %0, i64 16
  %11 = load ptr, ptr %10, align 8, !tbaa !25
  store ptr %11, ptr %5, align 8, !tbaa !26
  %12 = getelementptr inbounds nuw i8, ptr %5, i64 8
  call void @llvm.memcpy.p0.p0.i64(ptr noundef nonnull align 8 dereferenceable(128) %12, ptr noundef nonnull align 8 dereferenceable(128) @DefaultParserCallbacks, i64 128, i1 false), !tbaa.struct !29
  %13 = call i32 @parseReply(ptr noundef nonnull %5, ptr noundef nonnull %0) #8
  %14 = load i32, ptr %6, align 4, !tbaa !5
  %15 = or i32 %14, 2
  store i32 %15, ptr %6, align 4, !tbaa !5
  call void @llvm.lifetime.end.p0(i64 136, ptr nonnull %5) #8
  br label %callReplyParse.exit.i

callReplyParse.exit.i:                            ; preds = %9, %4
  %16 = getelementptr inbounds nuw i8, ptr %0, i64 32
  %17 = load i32, ptr %16, align 8, !tbaa !15
  %.not.i = icmp eq i32 %17, 5
  br i1 %.not.i, label %18, label %callReplyGetMapElementInternal.exit

18:                                               ; preds = %callReplyParse.exit.i
  %19 = getelementptr inbounds nuw i8, ptr %0, i64 40
  %20 = load i64, ptr %19, align 8, !tbaa !18
  %.not16.i = icmp ult i64 %1, %20
  br i1 %.not16.i, label %21, label %callReplyGetMapElementInternal.exit

21:                                               ; preds = %18
  %.not17.i = icmp eq ptr %2, null
  br i1 %.not17.i, label %29, label %22

22:                                               ; preds = %21
  %23 = shl i64 %1, 1
  %24 = shl i64 %20, 1
  %.not.i19.i = icmp ult i64 %23, %24
  br i1 %.not.i19.i, label %25, label %callReplyGetCollectionElement.exit.i

25:                                               ; preds = %22
  %26 = getelementptr inbounds nuw i8, ptr %0, i64 48
  %27 = load ptr, ptr %26, align 8, !tbaa !19
  %28 = getelementptr inbounds nuw %struct.CallReply, ptr %27, i64 %23
  br label %callReplyGetCollectionElement.exit.i

callReplyGetCollectionElement.exit.i:             ; preds = %25, %22
  %.0.i.i = phi ptr [ %28, %25 ], [ null, %22 ]
  store ptr %.0.i.i, ptr %2, align 8, !tbaa !32
  br label %29

29:                                               ; preds = %callReplyGetCollectionElement.exit.i, %21
  %.not18.i = icmp eq ptr %3, null
  br i1 %.not18.i, label %callReplyGetMapElementInternal.exit, label %30

30:                                               ; preds = %29
  %31 = shl i64 %1, 1
  %32 = or disjoint i64 %31, 1
  %33 = shl i64 %20, 1
  %.not.i20.i = icmp ult i64 %32, %33
  br i1 %.not.i20.i, label %34, label %callReplyGetCollectionElement.exit22.i

34:                                               ; preds = %30
  %35 = getelementptr inbounds nuw i8, ptr %0, i64 48
  %36 = load ptr, ptr %35, align 8, !tbaa !19
  %37 = getelementptr inbounds nuw %struct.CallReply, ptr %36, i64 %32
  br label %callReplyGetCollectionElement.exit22.i

callReplyGetCollectionElement.exit22.i:           ; preds = %34, %30
  %.0.i21.i = phi ptr [ %37, %34 ], [ null, %30 ]
  store ptr %.0.i21.i, ptr %3, align 8, !tbaa !32
  br label %callReplyGetMapElementInternal.exit

callReplyGetMapElementInternal.exit:              ; preds = %callReplyParse.exit.i, %18, %29, %callReplyGetCollectionElement.exit22.i
  %.0.i = phi i32 [ -1, %callReplyParse.exit.i ], [ -1, %18 ], [ 0, %callReplyGetCollectionElement.exit22.i ], [ 0, %29 ]
  ret i32 %.0.i
}